
process2.elf:     file format elf32-littlearm


Disassembly of section .text:

80020000 <_start>:
80020000:	e59fd018 	ldr	sp, [pc, #24]	@ 80020020 <GET32+0x8>
80020004:	eb0001f1 	bl	800207d0 <main>
80020008:	eaffffff 	b	8002000c <hang>

8002000c <hang>:
8002000c:	eafffffe 	b	8002000c <hang>

80020010 <PUT32>:
80020010:	e5801000 	str	r1, [r0]
80020014:	e12fff1e 	bx	lr

80020018 <GET32>:
80020018:	e5900000 	ldr	r0, [r0]
8002001c:	e12fff1e 	bx	lr
80020020:	800219f0 	strdhi	r1, [r2], -r0

80020024 <uart_itoa.part.0>:
80020024:	e3500000 	cmp	r0, #0
80020028:	e92d43f0 	push	{r4, r5, r6, r7, r8, r9, lr}
8002002c:	b2600000 	rsblt	r0, r0, #0
80020030:	b3a09001 	movlt	r9, #1
80020034:	a3a09000 	movge	r9, #0
80020038:	e241e001 	sub	lr, r1, #1
8002003c:	e30c6ccd 	movw	r6, #52429	@ 0xcccd
80020040:	e34c6ccc 	movt	r6, #52428	@ 0xcccc
80020044:	e3a04000 	mov	r4, #0
80020048:	e1a0500e 	mov	r5, lr
8002004c:	e3a0700a 	mov	r7, #10
80020050:	e0832096 	umull	r2, r3, r6, r0
80020054:	e1a0c004 	mov	ip, r4
80020058:	e2844001 	add	r4, r4, #1
8002005c:	e1a031a3 	lsr	r3, r3, #3
80020060:	e3530000 	cmp	r3, #0
80020064:	135c000d 	cmpne	ip, #13
80020068:	e0620397 	mls	r2, r7, r3, r0
8002006c:	13a08001 	movne	r8, #1
80020070:	e1a00003 	mov	r0, r3
80020074:	03a08000 	moveq	r8, #0
80020078:	e2823030 	add	r3, r2, #48	@ 0x30
8002007c:	e5e53001 	strb	r3, [r5, #1]!
80020080:	1afffff2 	bne	80020050 <uart_itoa.part.0+0x2c>
80020084:	e3590000 	cmp	r9, #0
80020088:	0a000013 	beq	800200dc <uart_itoa.part.0+0xb8>
8002008c:	e081300c 	add	r3, r1, ip
80020090:	e1a0c004 	mov	ip, r4
80020094:	e3a0202d 	mov	r2, #45	@ 0x2d
80020098:	e7c12004 	strb	r2, [r1, r4]
8002009c:	e5c38002 	strb	r8, [r3, #2]
800200a0:	e28c0001 	add	r0, ip, #1
800200a4:	e0810000 	add	r0, r1, r0
800200a8:	e1a0300e 	mov	r3, lr
800200ac:	e5fe4001 	ldrb	r4, [lr, #1]!
800200b0:	e2833002 	add	r3, r3, #2
800200b4:	e5705001 	ldrb	r5, [r0, #-1]!
800200b8:	e041200e 	sub	r2, r1, lr
800200bc:	e0433001 	sub	r3, r3, r1
800200c0:	e2422001 	sub	r2, r2, #1
800200c4:	e082200c 	add	r2, r2, ip
800200c8:	e5ce5000 	strb	r5, [lr]
800200cc:	e1520003 	cmp	r2, r3
800200d0:	e5c04000 	strb	r4, [r0]
800200d4:	cafffff3 	bgt	800200a8 <uart_itoa.part.0+0x84>
800200d8:	e8bd83f0 	pop	{r4, r5, r6, r7, r8, r9, pc}
800200dc:	e35c0000 	cmp	ip, #0
800200e0:	e7c19004 	strb	r9, [r1, r4]
800200e4:	1affffed 	bne	800200a0 <uart_itoa.part.0+0x7c>
800200e8:	e8bd83f0 	pop	{r4, r5, r6, r7, r8, r9, pc}

800200ec <uart_putc>:
800200ec:	e92d4070 	push	{r4, r5, r6, lr}
800200f0:	e3094014 	movw	r4, #36884	@ 0x9014
800200f4:	e34444e0 	movt	r4, #17632	@ 0x44e0
800200f8:	e1a05000 	mov	r5, r0
800200fc:	e1a00004 	mov	r0, r4
80020100:	ebffffc4 	bl	80020018 <GET32>
80020104:	e3100020 	tst	r0, #32
80020108:	0afffffb 	beq	800200fc <uart_putc+0x10>
8002010c:	e3a00a09 	mov	r0, #36864	@ 0x9000
80020110:	e1a01005 	mov	r1, r5
80020114:	e34404e0 	movt	r0, #17632	@ 0x44e0
80020118:	e8bd4070 	pop	{r4, r5, r6, lr}
8002011c:	eaffffbb 	b	80020010 <PUT32>

80020120 <uart_getc>:
80020120:	e92d4010 	push	{r4, lr}
80020124:	e3094014 	movw	r4, #36884	@ 0x9014
80020128:	e34444e0 	movt	r4, #17632	@ 0x44e0
8002012c:	e1a00004 	mov	r0, r4
80020130:	ebffffb8 	bl	80020018 <GET32>
80020134:	e3100001 	tst	r0, #1
80020138:	0afffffb 	beq	8002012c <uart_getc+0xc>
8002013c:	e3a00a09 	mov	r0, #36864	@ 0x9000
80020140:	e34404e0 	movt	r0, #17632	@ 0x44e0
80020144:	ebffffb3 	bl	80020018 <GET32>
80020148:	e6ef0070 	uxtb	r0, r0
8002014c:	e8bd8010 	pop	{r4, pc}

80020150 <uart_puts>:
80020150:	e92d41f0 	push	{r4, r5, r6, r7, r8, lr}
80020154:	e5d05000 	ldrb	r5, [r0]
80020158:	e3550000 	cmp	r5, #0
8002015c:	08bd81f0 	popeq	{r4, r5, r6, r7, r8, pc}
80020160:	e3094014 	movw	r4, #36884	@ 0x9014
80020164:	e3a07a09 	mov	r7, #36864	@ 0x9000
80020168:	e34444e0 	movt	r4, #17632	@ 0x44e0
8002016c:	e34474e0 	movt	r7, #17632	@ 0x44e0
80020170:	e1a06000 	mov	r6, r0
80020174:	e1a00004 	mov	r0, r4
80020178:	ebffffa6 	bl	80020018 <GET32>
8002017c:	e3100020 	tst	r0, #32
80020180:	0afffffb 	beq	80020174 <uart_puts+0x24>
80020184:	e1a01005 	mov	r1, r5
80020188:	e1a00007 	mov	r0, r7
8002018c:	ebffff9f 	bl	80020010 <PUT32>
80020190:	e5f65001 	ldrb	r5, [r6, #1]!
80020194:	e3550000 	cmp	r5, #0
80020198:	1afffff5 	bne	80020174 <uart_puts+0x24>
8002019c:	e8bd81f0 	pop	{r4, r5, r6, r7, r8, pc}

800201a0 <uart_gets_input>:
800201a0:	e3510001 	cmp	r1, #1
800201a4:	e92d47f0 	push	{r4, r5, r6, r7, r8, r9, sl, lr}
800201a8:	e1a09000 	mov	r9, r0
800201ac:	da00002d 	ble	80020268 <uart_gets_input+0xc8>
800201b0:	e3094014 	movw	r4, #36884	@ 0x9014
800201b4:	e3a07a09 	mov	r7, #36864	@ 0x9000
800201b8:	e2418001 	sub	r8, r1, #1
800201bc:	e34444e0 	movt	r4, #17632	@ 0x44e0
800201c0:	e34474e0 	movt	r7, #17632	@ 0x44e0
800201c4:	e3a06000 	mov	r6, #0
800201c8:	e1a00004 	mov	r0, r4
800201cc:	ebffff91 	bl	80020018 <GET32>
800201d0:	e3100001 	tst	r0, #1
800201d4:	0afffffb 	beq	800201c8 <uart_gets_input+0x28>
800201d8:	e1a00007 	mov	r0, r7
800201dc:	ebffff8d 	bl	80020018 <GET32>
800201e0:	e6ef5070 	uxtb	r5, r0
800201e4:	e355000a 	cmp	r5, #10
800201e8:	1355000d 	cmpne	r5, #13
800201ec:	0a00002d 	beq	800202a8 <uart_gets_input+0x108>
800201f0:	e355007f 	cmp	r5, #127	@ 0x7f
800201f4:	13550008 	cmpne	r5, #8
800201f8:	1a00001d 	bne	80020274 <uart_gets_input+0xd4>
800201fc:	e3560000 	cmp	r6, #0
80020200:	dafffff0 	ble	800201c8 <uart_gets_input+0x28>
80020204:	e1a00004 	mov	r0, r4
80020208:	ebffff82 	bl	80020018 <GET32>
8002020c:	e3100020 	tst	r0, #32
80020210:	0afffffb 	beq	80020204 <uart_gets_input+0x64>
80020214:	e3a01008 	mov	r1, #8
80020218:	e1a00007 	mov	r0, r7
8002021c:	ebffff7b 	bl	80020010 <PUT32>
80020220:	e1a00004 	mov	r0, r4
80020224:	ebffff7b 	bl	80020018 <GET32>
80020228:	e3100020 	tst	r0, #32
8002022c:	0afffffb 	beq	80020220 <uart_gets_input+0x80>
80020230:	e3a01020 	mov	r1, #32
80020234:	e1a00007 	mov	r0, r7
80020238:	ebffff74 	bl	80020010 <PUT32>
8002023c:	e1a00004 	mov	r0, r4
80020240:	ebffff74 	bl	80020018 <GET32>
80020244:	e3100020 	tst	r0, #32
80020248:	0afffffb 	beq	8002023c <uart_gets_input+0x9c>
8002024c:	e2466001 	sub	r6, r6, #1
80020250:	e3a01008 	mov	r1, #8
80020254:	e1a00007 	mov	r0, r7
80020258:	ebffff6c 	bl	80020010 <PUT32>
8002025c:	e1560008 	cmp	r6, r8
80020260:	baffffd8 	blt	800201c8 <uart_gets_input+0x28>
80020264:	e0899006 	add	r9, r9, r6
80020268:	e3a03000 	mov	r3, #0
8002026c:	e5c93000 	strb	r3, [r9]
80020270:	e8bd87f0 	pop	{r4, r5, r6, r7, r8, r9, sl, pc}
80020274:	e1a00004 	mov	r0, r4
80020278:	ebffff66 	bl	80020018 <GET32>
8002027c:	e3100020 	tst	r0, #32
80020280:	0afffffb 	beq	80020274 <uart_gets_input+0xd4>
80020284:	e1a01005 	mov	r1, r5
80020288:	e1a00007 	mov	r0, r7
8002028c:	ebffff5f 	bl	80020010 <PUT32>
80020290:	e7c95006 	strb	r5, [r9, r6]
80020294:	e2866001 	add	r6, r6, #1
80020298:	e1560008 	cmp	r6, r8
8002029c:	baffffc9 	blt	800201c8 <uart_gets_input+0x28>
800202a0:	e0899006 	add	r9, r9, r6
800202a4:	eaffffef 	b	80020268 <uart_gets_input+0xc8>
800202a8:	e3094014 	movw	r4, #36884	@ 0x9014
800202ac:	e34444e0 	movt	r4, #17632	@ 0x44e0
800202b0:	e1a00004 	mov	r0, r4
800202b4:	ebffff57 	bl	80020018 <GET32>
800202b8:	e3100020 	tst	r0, #32
800202bc:	0afffffb 	beq	800202b0 <uart_gets_input+0x110>
800202c0:	e3a0100a 	mov	r1, #10
800202c4:	e3a00a09 	mov	r0, #36864	@ 0x9000
800202c8:	e34404e0 	movt	r0, #17632	@ 0x44e0
800202cc:	e3094014 	movw	r4, #36884	@ 0x9014
800202d0:	ebffff4e 	bl	80020010 <PUT32>
800202d4:	e34444e0 	movt	r4, #17632	@ 0x44e0
800202d8:	e1a00004 	mov	r0, r4
800202dc:	ebffff4d 	bl	80020018 <GET32>
800202e0:	e3100001 	tst	r0, #1
800202e4:	0afffffb 	beq	800202d8 <uart_gets_input+0x138>
800202e8:	e3a00a09 	mov	r0, #36864	@ 0x9000
800202ec:	e34404e0 	movt	r0, #17632	@ 0x44e0
800202f0:	ebffff48 	bl	80020018 <GET32>
800202f4:	e0899006 	add	r9, r9, r6
800202f8:	eaffffda 	b	80020268 <uart_gets_input+0xc8>

800202fc <uart_atoi>:
800202fc:	e52de004 	push	{lr}		@ (str lr, [sp, #-4]!)
80020300:	e5d01000 	ldrb	r1, [r0]
80020304:	e351002d 	cmp	r1, #45	@ 0x2d
80020308:	13a0c000 	movne	ip, #0
8002030c:	13a0e001 	movne	lr, #1
80020310:	05d01001 	ldrbeq	r1, [r0, #1]
80020314:	03a0c001 	moveq	ip, #1
80020318:	03e0e000 	mvneq	lr, #0
8002031c:	e2413030 	sub	r3, r1, #48	@ 0x30
80020320:	e6ef2073 	uxtb	r2, r3
80020324:	e3520009 	cmp	r2, #9
80020328:	9080200c 	addls	r2, r0, ip
8002032c:	93a00000 	movls	r0, #0
80020330:	93a0c00a 	movls	ip, #10
80020334:	8a000007 	bhi	80020358 <uart_atoi+0x5c>
80020338:	e5f21001 	ldrb	r1, [r2, #1]!
8002033c:	e020309c 	mla	r0, ip, r0, r3
80020340:	e2413030 	sub	r3, r1, #48	@ 0x30
80020344:	e6ef1073 	uxtb	r1, r3
80020348:	e3510009 	cmp	r1, #9
8002034c:	9afffff9 	bls	80020338 <uart_atoi+0x3c>
80020350:	e000009e 	mul	r0, lr, r0
80020354:	e49df004 	pop	{pc}		@ (ldr pc, [sp], #4)
80020358:	e3a00000 	mov	r0, #0
8002035c:	e49df004 	pop	{pc}		@ (ldr pc, [sp], #4)

80020360 <uart_itoa>:
80020360:	e3500000 	cmp	r0, #0
80020364:	0a000000 	beq	8002036c <uart_itoa+0xc>
80020368:	eaffff2d 	b	80020024 <uart_itoa.part.0>
8002036c:	e3a02030 	mov	r2, #48	@ 0x30
80020370:	e1c120b0 	strh	r2, [r1]
80020374:	e12fff1e 	bx	lr

80020378 <uart_atof>:
80020378:	e92d4070 	push	{r4, r5, r6, lr}
8002037c:	e5d03000 	ldrb	r3, [r0]
80020380:	e353002d 	cmp	r3, #45	@ 0x2d
80020384:	13a02000 	movne	r2, #0
80020388:	13a06001 	movne	r6, #1
8002038c:	05d03001 	ldrbeq	r3, [r0, #1]
80020390:	03a02001 	moveq	r2, #1
80020394:	03e06000 	mvneq	r6, #0
80020398:	e3530000 	cmp	r3, #0
8002039c:	0a00001d 	beq	80020418 <uart_atof+0xa0>
800203a0:	e3a0e000 	mov	lr, #0
800203a4:	e080c002 	add	ip, r0, r2
800203a8:	e3a01001 	mov	r1, #1
800203ac:	e1a0000e 	mov	r0, lr
800203b0:	e1a0500e 	mov	r5, lr
800203b4:	e3a0400a 	mov	r4, #10
800203b8:	ea000008 	b	800203e0 <uart_atof+0x68>
800203bc:	e3530009 	cmp	r3, #9
800203c0:	8a00000e 	bhi	80020400 <uart_atof+0x88>
800203c4:	e35e0000 	cmp	lr, #0
800203c8:	e5fc3001 	ldrb	r3, [ip, #1]!
800203cc:	10202094 	mlane	r0, r4, r0, r2
800203d0:	10010194 	mulne	r1, r4, r1
800203d4:	00252594 	mlaeq	r5, r4, r5, r2
800203d8:	e3530000 	cmp	r3, #0
800203dc:	0a000007 	beq	80020400 <uart_atof+0x88>
800203e0:	e2432030 	sub	r2, r3, #48	@ 0x30
800203e4:	e353002e 	cmp	r3, #46	@ 0x2e
800203e8:	e6ef3072 	uxtb	r3, r2
800203ec:	1afffff2 	bne	800203bc <uart_atof+0x44>
800203f0:	e5fc3001 	ldrb	r3, [ip, #1]!
800203f4:	e3a0e001 	mov	lr, #1
800203f8:	e3530000 	cmp	r3, #0
800203fc:	1afffff7 	bne	800203e0 <uart_atof+0x68>
80020400:	e3a04ffa 	mov	r4, #1000	@ 0x3e8
80020404:	e0000094 	mul	r0, r4, r0
80020408:	eb0000ff 	bl	8002080c <__divsi3>
8002040c:	e0200594 	mla	r0, r4, r5, r0
80020410:	e0000096 	mul	r0, r6, r0
80020414:	e8bd8070 	pop	{r4, r5, r6, pc}
80020418:	e1a00003 	mov	r0, r3
8002041c:	e8bd8070 	pop	{r4, r5, r6, pc}

80020420 <uart_ftoa>:
80020420:	eeb50ac0 	vcmpe.f32	s0, #0.0
80020424:	e92d4070 	push	{r4, r5, r6, lr}
80020428:	e1a04000 	mov	r4, r0
8002042c:	e1a05001 	mov	r5, r1
80020430:	eef1fa10 	vmrs	APSR_nzcv, fpscr
80020434:	4eb10a40 	vnegmi.f32	s0, s0
80020438:	43a0302d 	movmi	r3, #45	@ 0x2d
8002043c:	44c43001 	strbmi	r3, [r4], #1
80020440:	eefd7ac0 	vcvt.s32.f32	s15, s0
80020444:	ee173a90 	vmov	r3, s15
80020448:	eeb87ae7 	vcvt.f32.s32	s14, s15
8002044c:	ee300a47 	vsub.f32	s0, s0, s14
80020450:	e3530000 	cmp	r3, #0
80020454:	0a00001e 	beq	800204d4 <uart_ftoa+0xb4>
80020458:	ee170a90 	vmov	r0, s15
8002045c:	e1a01004 	mov	r1, r4
80020460:	ebfffeef 	bl	80020024 <uart_itoa.part.0>
80020464:	e5d43000 	ldrb	r3, [r4]
80020468:	e3530000 	cmp	r3, #0
8002046c:	0a000002 	beq	8002047c <uart_ftoa+0x5c>
80020470:	e5f43001 	ldrb	r3, [r4, #1]!
80020474:	e3530000 	cmp	r3, #0
80020478:	1afffffc 	bne	80020470 <uart_ftoa+0x50>
8002047c:	e3550000 	cmp	r5, #0
80020480:	e1a00004 	mov	r0, r4
80020484:	e3a0302e 	mov	r3, #46	@ 0x2e
80020488:	e4c03001 	strb	r3, [r0], #1
8002048c:	da00000d 	ble	800204c8 <uart_ftoa+0xa8>
80020490:	eef26a04 	vmov.f32	s13, #36	@ 0x41200000  10.0
80020494:	e2853001 	add	r3, r5, #1
80020498:	e0844003 	add	r4, r4, r3
8002049c:	e1a02000 	mov	r2, r0
800204a0:	ee200a26 	vmul.f32	s0, s0, s13
800204a4:	eefd7ac0 	vcvt.s32.f32	s15, s0
800204a8:	ee173a90 	vmov	r3, s15
800204ac:	eeb87ae7 	vcvt.f32.s32	s14, s15
800204b0:	ee300a47 	vsub.f32	s0, s0, s14
800204b4:	e2833030 	add	r3, r3, #48	@ 0x30
800204b8:	e4c23001 	strb	r3, [r2], #1
800204bc:	e1520004 	cmp	r2, r4
800204c0:	1afffff6 	bne	800204a0 <uart_ftoa+0x80>
800204c4:	e0800005 	add	r0, r0, r5
800204c8:	e3a03000 	mov	r3, #0
800204cc:	e5c03000 	strb	r3, [r0]
800204d0:	e8bd8070 	pop	{r4, r5, r6, pc}
800204d4:	e3a03030 	mov	r3, #48	@ 0x30
800204d8:	e1c430b0 	strh	r3, [r4]
800204dc:	eaffffe3 	b	80020470 <uart_ftoa+0x50>

800204e0 <delay_loop>:
800204e0:	e24dd008 	sub	sp, sp, #8
800204e4:	e3a03000 	mov	r3, #0
800204e8:	e30e20ff 	movw	r2, #57599	@ 0xe0ff
800204ec:	e34025f5 	movt	r2, #1525	@ 0x5f5
800204f0:	e58d3004 	str	r3, [sp, #4]
800204f4:	e59d3004 	ldr	r3, [sp, #4]
800204f8:	e1530002 	cmp	r3, r2
800204fc:	ca000005 	bgt	80020518 <delay_loop+0x38>
80020500:	e59d3004 	ldr	r3, [sp, #4]
80020504:	e2833001 	add	r3, r3, #1
80020508:	e58d3004 	str	r3, [sp, #4]
8002050c:	e59d3004 	ldr	r3, [sp, #4]
80020510:	e1530002 	cmp	r3, r2
80020514:	dafffff9 	ble	80020500 <delay_loop+0x20>
80020518:	e28dd008 	add	sp, sp, #8
8002051c:	e12fff1e 	bx	lr

80020520 <to_string>:
80020520:	eaffff8e 	b	80020360 <uart_itoa>

80020524 <to_int>:
80020524:	eaffff74 	b	800202fc <uart_atoi>

80020528 <PRINT>:
80020528:	e92d000f 	push	{r0, r1, r2, r3}
8002052c:	e92d40f0 	push	{r4, r5, r6, r7, lr}
80020530:	e24dd04c 	sub	sp, sp, #76	@ 0x4c
80020534:	e28d3064 	add	r3, sp, #100	@ 0x64
80020538:	e59d4060 	ldr	r4, [sp, #96]	@ 0x60
8002053c:	e58d3004 	str	r3, [sp, #4]
80020540:	e5d40000 	ldrb	r0, [r4]
80020544:	e3500000 	cmp	r0, #0
80020548:	0a000012 	beq	80020598 <PRINT+0x70>
8002054c:	e59f614c 	ldr	r6, [pc, #332]	@ 800206a0 <PRINT+0x178>
80020550:	e3500025 	cmp	r0, #37	@ 0x25
80020554:	1a000043 	bne	80020668 <PRINT+0x140>
80020558:	e5d43001 	ldrb	r3, [r4, #1]
8002055c:	e2433063 	sub	r3, r3, #99	@ 0x63
80020560:	e3530015 	cmp	r3, #21
80020564:	8a000002 	bhi	80020574 <PRINT+0x4c>
80020568:	e7d63003 	ldrb	r3, [r6, r3]
8002056c:	e08ff103 	add	pc, pc, r3, lsl #2
80020570:	e320f000 	nop	{0}
80020574:	e3a00025 	mov	r0, #37	@ 0x25
80020578:	ebfffedb 	bl	800200ec <uart_putc>
8002057c:	e5d40001 	ldrb	r0, [r4, #1]
80020580:	ebfffed9 	bl	800200ec <uart_putc>
80020584:	e2843001 	add	r3, r4, #1
80020588:	e5d30001 	ldrb	r0, [r3, #1]
8002058c:	e2834001 	add	r4, r3, #1
80020590:	e3500000 	cmp	r0, #0
80020594:	1affffed 	bne	80020550 <PRINT+0x28>
80020598:	e28dd04c 	add	sp, sp, #76	@ 0x4c
8002059c:	e8bd40f0 	pop	{r4, r5, r6, r7, lr}
800205a0:	e28dd010 	add	sp, sp, #16
800205a4:	e12fff1e 	bx	lr
800205a8:	e59d3004 	ldr	r3, [sp, #4]
800205ac:	e28d1008 	add	r1, sp, #8
800205b0:	e2832004 	add	r2, r3, #4
800205b4:	e58d2004 	str	r2, [sp, #4]
800205b8:	e5930000 	ldr	r0, [r3]
800205bc:	ebffff67 	bl	80020360 <uart_itoa>
800205c0:	e28d0008 	add	r0, sp, #8
800205c4:	ebfffee1 	bl	80020150 <uart_puts>
800205c8:	eaffffed 	b	80020584 <PRINT+0x5c>
800205cc:	e59d3004 	ldr	r3, [sp, #4]
800205d0:	e2832004 	add	r2, r3, #4
800205d4:	e58d2004 	str	r2, [sp, #4]
800205d8:	e5d30000 	ldrb	r0, [r3]
800205dc:	ebfffec2 	bl	800200ec <uart_putc>
800205e0:	eaffffe7 	b	80020584 <PRINT+0x5c>
800205e4:	e59d3004 	ldr	r3, [sp, #4]
800205e8:	e2832004 	add	r2, r3, #4
800205ec:	e58d2004 	str	r2, [sp, #4]
800205f0:	e5930000 	ldr	r0, [r3]
800205f4:	ebfffed5 	bl	80020150 <uart_puts>
800205f8:	eaffffe1 	b	80020584 <PRINT+0x5c>
800205fc:	e59d3004 	ldr	r3, [sp, #4]
80020600:	e2832004 	add	r2, r3, #4
80020604:	e58d2004 	str	r2, [sp, #4]
80020608:	e5937000 	ldr	r7, [r3]
8002060c:	e3570000 	cmp	r7, #0
80020610:	ba00001e 	blt	80020690 <PRINT+0x168>
80020614:	e3045dd3 	movw	r5, #19923	@ 0x4dd3
80020618:	e3415062 	movt	r5, #4194	@ 0x1062
8002061c:	e28d1028 	add	r1, sp, #40	@ 0x28
80020620:	e0853795 	umull	r3, r5, r5, r7
80020624:	e1a05325 	lsr	r5, r5, #6
80020628:	e1a00005 	mov	r0, r5
8002062c:	ebffff4b 	bl	80020360 <uart_itoa>
80020630:	e28d0028 	add	r0, sp, #40	@ 0x28
80020634:	ebfffec5 	bl	80020150 <uart_puts>
80020638:	e3a0002e 	mov	r0, #46	@ 0x2e
8002063c:	ebfffeaa 	bl	800200ec <uart_putc>
80020640:	e3a03ffa 	mov	r3, #1000	@ 0x3e8
80020644:	e0677593 	mls	r7, r3, r5, r7
80020648:	e3570063 	cmp	r7, #99	@ 0x63
8002064c:	da000008 	ble	80020674 <PRINT+0x14c>
80020650:	e1a00007 	mov	r0, r7
80020654:	e28d1028 	add	r1, sp, #40	@ 0x28
80020658:	ebffff40 	bl	80020360 <uart_itoa>
8002065c:	e28d0028 	add	r0, sp, #40	@ 0x28
80020660:	ebfffeba 	bl	80020150 <uart_puts>
80020664:	eaffffc6 	b	80020584 <PRINT+0x5c>
80020668:	ebfffe9f 	bl	800200ec <uart_putc>
8002066c:	e1a03004 	mov	r3, r4
80020670:	eaffffc4 	b	80020588 <PRINT+0x60>
80020674:	e3a00030 	mov	r0, #48	@ 0x30
80020678:	ebfffe9b 	bl	800200ec <uart_putc>
8002067c:	e3570009 	cmp	r7, #9
80020680:	cafffff2 	bgt	80020650 <PRINT+0x128>
80020684:	e3a00030 	mov	r0, #48	@ 0x30
80020688:	ebfffe97 	bl	800200ec <uart_putc>
8002068c:	eaffffef 	b	80020650 <PRINT+0x128>
80020690:	e3a0002d 	mov	r0, #45	@ 0x2d
80020694:	e2677000 	rsb	r7, r7, #0
80020698:	ebfffe93 	bl	800200ec <uart_putc>
8002069c:	eaffffdc 	b	80020614 <PRINT+0xec>
800206a0:	8002095c 	andhi	r0, r2, ip, asr r9

800206a4 <READ>:
800206a4:	e92d000f 	push	{r0, r1, r2, r3}
800206a8:	e92d40f0 	push	{r4, r5, r6, r7, lr}
800206ac:	e24dd04c 	sub	sp, sp, #76	@ 0x4c
800206b0:	e28d3064 	add	r3, sp, #100	@ 0x64
800206b4:	e59d5060 	ldr	r5, [sp, #96]	@ 0x60
800206b8:	e58d3004 	str	r3, [sp, #4]
800206bc:	e5d53000 	ldrb	r3, [r5]
800206c0:	e3530000 	cmp	r3, #0
800206c4:	0a000017 	beq	80020728 <READ+0x84>
800206c8:	e59f60fc 	ldr	r6, [pc, #252]	@ 800207cc <READ+0x128>
800206cc:	e3a04000 	mov	r4, #0
800206d0:	ea000003 	b	800206e4 <READ+0x40>
800206d4:	e2844001 	add	r4, r4, #1
800206d8:	e7d53004 	ldrb	r3, [r5, r4]
800206dc:	e3530000 	cmp	r3, #0
800206e0:	0a000010 	beq	80020728 <READ+0x84>
800206e4:	e3530025 	cmp	r3, #37	@ 0x25
800206e8:	1afffff9 	bne	800206d4 <READ+0x30>
800206ec:	e2844001 	add	r4, r4, #1
800206f0:	e7d53004 	ldrb	r3, [r5, r4]
800206f4:	e2433063 	sub	r3, r3, #99	@ 0x63
800206f8:	e3530010 	cmp	r3, #16
800206fc:	8a000002 	bhi	8002070c <READ+0x68>
80020700:	e7d63003 	ldrb	r3, [r6, r3]
80020704:	e08ff103 	add	pc, pc, r3, lsl #2
80020708:	e320f000 	nop	{0}
8002070c:	e2844001 	add	r4, r4, #1
80020710:	e3000984 	movw	r0, #2436	@ 0x984
80020714:	e3480002 	movt	r0, #32770	@ 0x8002
80020718:	ebfffe8c 	bl	80020150 <uart_puts>
8002071c:	e7d53004 	ldrb	r3, [r5, r4]
80020720:	e3530000 	cmp	r3, #0
80020724:	1affffee 	bne	800206e4 <READ+0x40>
80020728:	e28dd04c 	add	sp, sp, #76	@ 0x4c
8002072c:	e8bd40f0 	pop	{r4, r5, r6, r7, lr}
80020730:	e28dd010 	add	sp, sp, #16
80020734:	e12fff1e 	bx	lr
80020738:	e59d3004 	ldr	r3, [sp, #4]
8002073c:	e3a01040 	mov	r1, #64	@ 0x40
80020740:	e2832004 	add	r2, r3, #4
80020744:	e58d2004 	str	r2, [sp, #4]
80020748:	e5930000 	ldr	r0, [r3]
8002074c:	ebfffe93 	bl	800201a0 <uart_gets_input>
80020750:	eaffffdf 	b	800206d4 <READ+0x30>
80020754:	e59d3004 	ldr	r3, [sp, #4]
80020758:	e28d0008 	add	r0, sp, #8
8002075c:	e3a01040 	mov	r1, #64	@ 0x40
80020760:	e2832004 	add	r2, r3, #4
80020764:	e58d2004 	str	r2, [sp, #4]
80020768:	e5937000 	ldr	r7, [r3]
8002076c:	ebfffe8b 	bl	800201a0 <uart_gets_input>
80020770:	e28d0008 	add	r0, sp, #8
80020774:	ebfffeff 	bl	80020378 <uart_atof>
80020778:	e5870000 	str	r0, [r7]
8002077c:	eaffffd4 	b	800206d4 <READ+0x30>
80020780:	e28d0008 	add	r0, sp, #8
80020784:	e3a01040 	mov	r1, #64	@ 0x40
80020788:	ebfffe84 	bl	800201a0 <uart_gets_input>
8002078c:	e59d3004 	ldr	r3, [sp, #4]
80020790:	e28d0008 	add	r0, sp, #8
80020794:	e2832004 	add	r2, r3, #4
80020798:	e58d2004 	str	r2, [sp, #4]
8002079c:	e5937000 	ldr	r7, [r3]
800207a0:	ebfffed5 	bl	800202fc <uart_atoi>
800207a4:	e5870000 	str	r0, [r7]
800207a8:	eaffffc9 	b	800206d4 <READ+0x30>
800207ac:	e59d3004 	ldr	r3, [sp, #4]
800207b0:	e2832004 	add	r2, r3, #4
800207b4:	e58d2004 	str	r2, [sp, #4]
800207b8:	e5937000 	ldr	r7, [r3]
800207bc:	ebfffe57 	bl	80020120 <uart_getc>
800207c0:	e5c70000 	strb	r0, [r7]
800207c4:	ebfffe48 	bl	800200ec <uart_putc>
800207c8:	eaffffc1 	b	800206d4 <READ+0x30>
800207cc:	80020972 	andhi	r0, r2, r2, ror r9

800207d0 <main>:
800207d0:	e92d4070 	push	{r4, r5, r6, lr}
800207d4:	e30009a4 	movw	r0, #2468	@ 0x9a4
800207d8:	e3480002 	movt	r0, #32770	@ 0x8002
800207dc:	e30059e4 	movw	r5, #2532	@ 0x9e4
800207e0:	ebffff50 	bl	80020528 <PRINT>
800207e4:	e3485002 	movt	r5, #32770	@ 0x8002
800207e8:	e3a04000 	mov	r4, #0
800207ec:	e1a01004 	mov	r1, r4
800207f0:	e1a00005 	mov	r0, r5
800207f4:	e2844001 	add	r4, r4, #1
800207f8:	ebffff4a 	bl	80020528 <PRINT>
800207fc:	ebffff37 	bl	800204e0 <delay_loop>
80020800:	e354000a 	cmp	r4, #10
80020804:	1afffff8 	bne	800207ec <main+0x1c>
80020808:	eafffff6 	b	800207e8 <main+0x18>

8002080c <__divsi3>:
8002080c:	e3510000 	cmp	r1, #0
80020810:	0a000043 	beq	80020924 <.divsi3_skip_div0_test+0x110>

80020814 <.divsi3_skip_div0_test>:
80020814:	e020c001 	eor	ip, r0, r1
80020818:	42611000 	rsbmi	r1, r1, #0
8002081c:	e2512001 	subs	r2, r1, #1
80020820:	0a000027 	beq	800208c4 <.divsi3_skip_div0_test+0xb0>
80020824:	e1b03000 	movs	r3, r0
80020828:	42603000 	rsbmi	r3, r0, #0
8002082c:	e1530001 	cmp	r3, r1
80020830:	9a000026 	bls	800208d0 <.divsi3_skip_div0_test+0xbc>
80020834:	e1110002 	tst	r1, r2
80020838:	0a000028 	beq	800208e0 <.divsi3_skip_div0_test+0xcc>
8002083c:	e311020e 	tst	r1, #-536870912	@ 0xe0000000
80020840:	01a01181 	lsleq	r1, r1, #3
80020844:	03a02008 	moveq	r2, #8
80020848:	13a02001 	movne	r2, #1
8002084c:	e3510201 	cmp	r1, #268435456	@ 0x10000000
80020850:	31510003 	cmpcc	r1, r3
80020854:	31a01201 	lslcc	r1, r1, #4
80020858:	31a02202 	lslcc	r2, r2, #4
8002085c:	3afffffa 	bcc	8002084c <.divsi3_skip_div0_test+0x38>
80020860:	e3510102 	cmp	r1, #-2147483648	@ 0x80000000
80020864:	31510003 	cmpcc	r1, r3
80020868:	31a01081 	lslcc	r1, r1, #1
8002086c:	31a02082 	lslcc	r2, r2, #1
80020870:	3afffffa 	bcc	80020860 <.divsi3_skip_div0_test+0x4c>
80020874:	e3a00000 	mov	r0, #0
80020878:	e1530001 	cmp	r3, r1
8002087c:	20433001 	subcs	r3, r3, r1
80020880:	21800002 	orrcs	r0, r0, r2
80020884:	e15300a1 	cmp	r3, r1, lsr #1
80020888:	204330a1 	subcs	r3, r3, r1, lsr #1
8002088c:	218000a2 	orrcs	r0, r0, r2, lsr #1
80020890:	e1530121 	cmp	r3, r1, lsr #2
80020894:	20433121 	subcs	r3, r3, r1, lsr #2
80020898:	21800122 	orrcs	r0, r0, r2, lsr #2
8002089c:	e15301a1 	cmp	r3, r1, lsr #3
800208a0:	204331a1 	subcs	r3, r3, r1, lsr #3
800208a4:	218001a2 	orrcs	r0, r0, r2, lsr #3
800208a8:	e3530000 	cmp	r3, #0
800208ac:	11b02222 	lsrsne	r2, r2, #4
800208b0:	11a01221 	lsrne	r1, r1, #4
800208b4:	1affffef 	bne	80020878 <.divsi3_skip_div0_test+0x64>
800208b8:	e35c0000 	cmp	ip, #0
800208bc:	42600000 	rsbmi	r0, r0, #0
800208c0:	e12fff1e 	bx	lr
800208c4:	e13c0000 	teq	ip, r0
800208c8:	42600000 	rsbmi	r0, r0, #0
800208cc:	e12fff1e 	bx	lr
800208d0:	33a00000 	movcc	r0, #0
800208d4:	01a00fcc 	asreq	r0, ip, #31
800208d8:	03800001 	orreq	r0, r0, #1
800208dc:	e12fff1e 	bx	lr
800208e0:	e3510801 	cmp	r1, #65536	@ 0x10000
800208e4:	21a01821 	lsrcs	r1, r1, #16
800208e8:	23a02010 	movcs	r2, #16
800208ec:	33a02000 	movcc	r2, #0
800208f0:	e3510c01 	cmp	r1, #256	@ 0x100
800208f4:	21a01421 	lsrcs	r1, r1, #8
800208f8:	22822008 	addcs	r2, r2, #8
800208fc:	e3510010 	cmp	r1, #16
80020900:	21a01221 	lsrcs	r1, r1, #4
80020904:	22822004 	addcs	r2, r2, #4
80020908:	e3510004 	cmp	r1, #4
8002090c:	82822003 	addhi	r2, r2, #3
80020910:	908220a1 	addls	r2, r2, r1, lsr #1
80020914:	e35c0000 	cmp	ip, #0
80020918:	e1a00233 	lsr	r0, r3, r2
8002091c:	42600000 	rsbmi	r0, r0, #0
80020920:	e12fff1e 	bx	lr
80020924:	e3500000 	cmp	r0, #0
80020928:	c3e00102 	mvngt	r0, #-2147483648	@ 0x80000000
8002092c:	b3a00102 	movlt	r0, #-2147483648	@ 0x80000000
80020930:	ea000007 	b	80020954 <__aeabi_idiv0>

80020934 <__aeabi_idivmod>:
80020934:	e3510000 	cmp	r1, #0
80020938:	0afffff9 	beq	80020924 <.divsi3_skip_div0_test+0x110>
8002093c:	e92d4003 	push	{r0, r1, lr}
80020940:	ebffffb3 	bl	80020814 <.divsi3_skip_div0_test>
80020944:	e8bd4006 	pop	{r1, r2, lr}
80020948:	e0030092 	mul	r3, r2, r0
8002094c:	e0411003 	sub	r1, r1, r3
80020950:	e12fff1e 	bx	lr

80020954 <__aeabi_idiv0>:
80020954:	e12fff1e 	bx	lr

80020958 <UART0>:
80020958:	44e09000 	strbtmi	r9, [r0], #0
8002095c:	22000d16 	andcs	r0, r0, #1408	@ 0x580
	...
8002096c:	0000001c 	andeq	r0, r0, ip, lsl r0
80020970:	1d280d00 	stcne	13, cr0, [r8, #-0]
80020974:	00001200 	andeq	r1, r0, r0, lsl #4
	...
80020980:	000b0000 	andeq	r0, fp, r0
80020984:	75736e55 	ldrbvc	r6, [r3, #-3669]!	@ 0xfffff1ab
80020988:	726f7070 	rsbvc	r7, pc, #112	@ 0x70
8002098c:	20646574 	rsbcs	r6, r4, r4, ror r5
80020990:	6d726f66 	ldclvs	15, cr6, [r2, #-408]!	@ 0xfffffe68
80020994:	73207461 			@ <UNDEFINED> instruction: 0x73207461
80020998:	69636570 	stmdbvs	r3!, {r4, r5, r6, r8, sl, sp, lr}^
8002099c:	72656966 	rsbvc	r6, r5, #1671168	@ 0x198000
800209a0:	0000000a 	andeq	r0, r0, sl
800209a4:	3d3d0a20 	vldmdbcc	sp!, {s0-s31}
800209a8:	3d3d3d3d 	ldccc	13, cr3, [sp, #-244]!	@ 0xffffff0c
800209ac:	3d3d3d3d 	ldccc	13, cr3, [sp, #-244]!	@ 0xffffff0c
800209b0:	3d3d3d3d 	ldccc	13, cr3, [sp, #-244]!	@ 0xffffff0c
800209b4:	3d3d3d3d 	ldccc	13, cr3, [sp, #-244]!	@ 0xffffff0c
800209b8:	5453203d 	ldrbpl	r2, [r3], #-61	@ 0xffffffc3
800209bc:	49545241 	ldmdbmi	r4, {r0, r6, r9, ip, lr}^
800209c0:	4e20474e 	cdpmi	7, 2, cr4, cr0, cr14, {2}
800209c4:	45424d55 	strbmi	r4, [r2, #-3413]	@ 0xfffff2ab
800209c8:	3d205352 	stccc	3, cr5, [r0, #-328]!	@ 0xfffffeb8
800209cc:	3d3d3d3d 	ldccc	13, cr3, [sp, #-244]!	@ 0xffffff0c
800209d0:	3d3d3d3d 	ldccc	13, cr3, [sp, #-244]!	@ 0xffffff0c
800209d4:	3d3d3d3d 	ldccc	13, cr3, [sp, #-244]!	@ 0xffffff0c
800209d8:	3d3d3d3d 	ldccc	13, cr3, [sp, #-244]!	@ 0xffffff0c
800209dc:	0a203d3d 	beq	8082fed8 <_stack_top+0x7cfed8>
800209e0:	00000000 	andeq	r0, r0, r0
800209e4:	0a206425 	beq	80839a80 <_stack_top+0x7d9a80>
	...

Disassembly of section .ARM.attributes:

00000000 <.ARM.attributes>:
   0:	00003241 	andeq	r3, r0, r1, asr #4
   4:	61656100 	cmnvs	r5, r0, lsl #2
   8:	01006962 	tsteq	r0, r2, ror #18
   c:	00000028 	andeq	r0, r0, r8, lsr #32
  10:	412d3705 			@ <UNDEFINED> instruction: 0x412d3705
  14:	070a0600 	streq	r0, [sl, -r0, lsl #12]
  18:	09010841 	stmdbeq	r1, {r0, r6, fp}
  1c:	0c030a02 			@ <UNDEFINED> instruction: 0x0c030a02
  20:	14041201 	strne	r1, [r4], #-513	@ 0xfffffdff
  24:	17011501 	strne	r1, [r1, -r1, lsl #10]
  28:	1a011803 	bne	4603c <_start-0x7ffd9fc4>
  2c:	22011c01 	andcs	r1, r1, #256	@ 0x100
  30:	Address 0x30 is out of bounds.


Disassembly of section .comment:

00000000 <.comment>:
   0:	3a434347 	bcc	10d0d24 <_start-0x7ef4f2dc>
   4:	72412820 	subvc	r2, r1, #32, 16	@ 0x200000
   8:	4e47206d 	cdpmi	0, 4, cr2, cr7, cr13, {3}
   c:	6f542055 	svcvs	0x00542055
  10:	68636c6f 	stmdavs	r3!, {r0, r1, r2, r3, r5, r6, sl, fp, sp, lr}^
  14:	206e6961 	rsbcs	r6, lr, r1, ror #18
  18:	322e3431 	eorcc	r3, lr, #822083584	@ 0x31000000
  1c:	6c65522e 	stclvs	2, cr5, [r5], #-184	@ 0xffffff48
  20:	42282031 	eormi	r2, r8, #49	@ 0x31
  24:	646c6975 	strbtvs	r6, [ip], #-2421	@ 0xfffff68b
  28:	6d726120 	ldclvs	1, cr6, [r2, #-128]!	@ 0xffffff80
  2c:	2e34312d 	cdpcs	1, 3, cr3, cr4, cr13, {1}
  30:	29293235 	stmdbcs	r9!, {r0, r2, r4, r5, r9, ip, sp}
  34:	2e343120 	cdpcs	1, 3, cr3, cr4, cr0, {1}
  38:	20312e32 	eorscs	r2, r1, r2, lsr lr
  3c:	34323032 	ldrtcc	r3, [r2], #-50	@ 0xffffffce
  40:	39313131 	ldmdbcc	r1!, {r0, r4, r5, r8, ip, sp}
	...

Disassembly of section .debug_frame:

00000000 <.debug_frame>:
   0:	0000000c 	andeq	r0, r0, ip
   4:	ffffffff 			@ <UNDEFINED> instruction: 0xffffffff
   8:	7c010001 	stcvc	0, cr0, [r1], {1}
   c:	000d0c0e 	andeq	r0, sp, lr, lsl #24
  10:	0000000c 	andeq	r0, r0, ip
  14:	00000000 	andeq	r0, r0, r0
  18:	8002080c 	andhi	r0, r2, ip, lsl #16
  1c:	00000128 	andeq	r0, r0, r8, lsr #2

Disassembly of section .debug_line_str:

00000000 <.debug_line_str>:
   0:	6c6f562f 	stclvs	6, cr5, [pc], #-188	@ ffffff4c <_stack_top+0x7ff9ff4c>
   4:	73656d75 	cmnvc	r5, #7488	@ 0x1d40
   8:	7461642f 	strbtvc	r6, [r1], #-1071	@ 0xfffffbd1
   c:	656a2f61 	strbvs	r2, [sl, #-3937]!	@ 0xfffff09f
  10:	6e696b6e 	vnmulvs.f64	d22, d9, d30
  14:	6f772f73 	svcvs	0x00772f73
  18:	70736b72 	rsbsvc	r6, r3, r2, ror fp
  1c:	2f656361 	svccs	0x00656361
  20:	2d554e47 	ldclcs	14, cr4, [r5, #-284]	@ 0xfffffee4
  24:	6c6f6f74 	stclvs	15, cr6, [pc], #-464	@ fffffe5c <_stack_top+0x7ff9fe5c>
  28:	69616863 	stmdbvs	r1!, {r0, r1, r5, r6, fp, sp, lr}^
  2c:	72612f6e 	rsbvc	r2, r1, #440	@ 0x1b8
  30:	34312d6d 	ldrtcc	r2, [r1], #-3437	@ 0xfffff293
  34:	6975622f 	ldmdbvs	r5!, {r0, r1, r2, r3, r5, r9, sp, lr}^
  38:	612d646c 			@ <UNDEFINED> instruction: 0x612d646c
  3c:	6e2d6d72 	mcrvs	13, 1, r6, cr13, cr2, {3}
  40:	2d656e6f 	stclcs	14, cr6, [r5, #-444]!	@ 0xfffffe44
  44:	69626165 	stmdbvs	r2!, {r0, r2, r5, r6, r8, sp, lr}^
  48:	6a626f2f 	bvs	189bd0c <_start-0x7e7842f4>
  4c:	6363672f 	cmnvs	r3, #12320768	@ 0xbc0000
  50:	72612f32 	rsbvc	r2, r1, #50, 30	@ 0xc8
  54:	6f6e2d6d 	svcvs	0x006e2d6d
  58:	652d656e 	strvs	r6, [sp, #-1390]!	@ 0xfffffa92
  5c:	2f696261 	svccs	0x00696261
  60:	6762696c 	strbvs	r6, [r2, -ip, ror #18]!
  64:	2f006363 	svccs	0x00006363
  68:	756c6f56 	strbvc	r6, [ip, #-3926]!	@ 0xfffff0aa
  6c:	2f73656d 	svccs	0x0073656d
  70:	61746164 	cmnvs	r4, r4, ror #2
  74:	6e656a2f 	vmulvs.f32	s13, s10, s31
  78:	736e696b 	cmnvc	lr, #1753088	@ 0x1ac000
  7c:	726f772f 	rsbvc	r7, pc, #12320768	@ 0xbc0000
  80:	6170736b 	cmnvs	r0, fp, ror #6
  84:	472f6563 	strmi	r6, [pc, -r3, ror #10]!
  88:	742d554e 	strtvc	r5, [sp], #-1358	@ 0xfffffab2
  8c:	636c6f6f 	cmnvs	ip, #444	@ 0x1bc
  90:	6e696168 	cdpvs	1, 6, cr6, cr9, cr8, {3}
  94:	6d72612f 	ldclvs	1, cr6, [r2, #-188]!	@ 0xffffff44
  98:	2f34312d 	svccs	0x0034312d
  9c:	2f637273 	svccs	0x00637273
  a0:	2f636367 	svccs	0x00636367
  a4:	6762696c 	strbvs	r6, [r2, -ip, ror #18]!
  a8:	632f6363 			@ <UNDEFINED> instruction: 0x632f6363
  ac:	69666e6f 	stmdbvs	r6!, {r0, r1, r2, r3, r5, r6, r9, sl, fp, sp, lr}^
  b0:	72612f67 	rsbvc	r2, r1, #412	@ 0x19c
  b4:	696c006d 	stmdbvs	ip!, {r0, r2, r3, r5, r6}^
  b8:	75663162 	strbvc	r3, [r6, #-354]!	@ 0xfffffe9e
  bc:	2e73636e 	cdpcs	3, 7, cr6, cr3, cr14, {3}
  c0:	Address 0xc0 is out of bounds.

